target datalayout = "e-m:e-p270:32:32-p271:32:32-p272:64:64-i64:64-i128:128-f80:128-n8:16:32:64-S128"
target triple = "x86_64-pc-linux-gnu"

%struct.SRP_gN_st = type { ptr, ptr, ptr }

@.str.2 = private unnamed_addr constant [26 x i8] c"../openssl/test/srptest.c\00", align 1
@.str.11 = private unnamed_addr constant [32 x i8] c"GN = SRP_get_default_gN(\221024\22)\00", align 1
@.str.12 = private unnamed_addr constant [5 x i8] c"1024\00", align 1
@.str.13 = private unnamed_addr constant [68 x i8] c"SRP_create_verifier_BN(username, server_pass, &s, &v, GN->N, GN->g)\00", align 1
@.str.14 = private unnamed_addr constant [2 x i8] c"N\00", align 1
@.str.15 = private unnamed_addr constant [2 x i8] c"g\00", align 1
@.str.16 = private unnamed_addr constant [5 x i8] c"Salt\00", align 1
@.str.17 = private unnamed_addr constant [9 x i8] c"Verifier\00", align 1
@.str.18 = private unnamed_addr constant [2 x i8] c"b\00", align 1
@.str.19 = private unnamed_addr constant [2 x i8] c"B\00", align 1
@.str.20 = private unnamed_addr constant [32 x i8] c"SRP_Verify_B_mod_N(Bpub, GN->N)\00", align 1
@.str.21 = private unnamed_addr constant [2 x i8] c"a\00", align 1
@.str.22 = private unnamed_addr constant [2 x i8] c"A\00", align 1
@.str.23 = private unnamed_addr constant [32 x i8] c"SRP_Verify_A_mod_N(Apub, GN->N)\00", align 1
@.str.24 = private unnamed_addr constant [13 x i8] c"Client's key\00", align 1
@.str.25 = private unnamed_addr constant [13 x i8] c"Server's key\00", align 1
@.str.26 = private unnamed_addr constant [8 x i8] c"Kclient\00", align 1
@.str.27 = private unnamed_addr constant [8 x i8] c"Kserver\00", align 1

; Function Attrs: nounwind uwtable
define internal i32 @run_srp(ptr noundef %0, ptr noundef %1, ptr noundef %2) #0 {
  %4 = alloca i32, align 4
  %5 = alloca ptr, align 8
  %6 = alloca ptr, align 8
  %7 = alloca ptr, align 8
  %8 = alloca i32, align 4
  %9 = alloca ptr, align 8
  %10 = alloca ptr, align 8
  %11 = alloca ptr, align 8
  %12 = alloca ptr, align 8
  %13 = alloca ptr, align 8
  %14 = alloca ptr, align 8
  %15 = alloca ptr, align 8
  %16 = alloca ptr, align 8
  %17 = alloca ptr, align 8
  %18 = alloca ptr, align 8
  %19 = alloca [32 x i8], align 16
  %20 = alloca ptr, align 8
  %21 = alloca i32, align 4
  store ptr %0, ptr %5, align 8, !tbaa !17
  store ptr %1, ptr %6, align 8, !tbaa !17
  store ptr %2, ptr %7, align 8, !tbaa !17
  call void @llvm.lifetime.start.p0(i64 4, ptr %8) #3
  store i32 0, ptr %8, align 4, !tbaa !4
  call void @llvm.lifetime.start.p0(i64 8, ptr %9) #3
  store ptr null, ptr %9, align 8, !tbaa !8
  call void @llvm.lifetime.start.p0(i64 8, ptr %10) #3
  store ptr null, ptr %10, align 8, !tbaa !8
  call void @llvm.lifetime.start.p0(i64 8, ptr %11) #3
  store ptr null, ptr %11, align 8, !tbaa !8
  call void @llvm.lifetime.start.p0(i64 8, ptr %12) #3
  store ptr null, ptr %12, align 8, !tbaa !8
  call void @llvm.lifetime.start.p0(i64 8, ptr %13) #3
  store ptr null, ptr %13, align 8, !tbaa !8
  call void @llvm.lifetime.start.p0(i64 8, ptr %14) #3
  store ptr null, ptr %14, align 8, !tbaa !8
  call void @llvm.lifetime.start.p0(i64 8, ptr %15) #3
  store ptr null, ptr %15, align 8, !tbaa !8
  call void @llvm.lifetime.start.p0(i64 8, ptr %16) #3
  store ptr null, ptr %16, align 8, !tbaa !8
  call void @llvm.lifetime.start.p0(i64 8, ptr %17) #3
  store ptr null, ptr %17, align 8, !tbaa !8
  call void @llvm.lifetime.start.p0(i64 8, ptr %18) #3
  store ptr null, ptr %18, align 8, !tbaa !8
  call void @llvm.lifetime.start.p0(i64 32, ptr %19) #3
  call void @llvm.lifetime.start.p0(i64 8, ptr %20) #3
  %22 = call ptr @SRP_get_default_gN(ptr noundef @.str.12)
  store ptr %22, ptr %20, align 8, !tbaa !11
  %23 = call i32 @test_ptr(ptr noundef @.str.2, i32 noundef 47, ptr noundef @.str.11, ptr noundef %22)
  %24 = icmp ne i32 %23, 0
  br i1 %24, label %26, label %25

25:                                               ; preds = %3
  store i32 0, ptr %4, align 4
  store i32 1, ptr %21, align 4
  br label %160

26:                                               ; preds = %3
  %27 = load ptr, ptr %5, align 8, !tbaa !17
  %28 = load ptr, ptr %7, align 8, !tbaa !17
  %29 = load ptr, ptr %20, align 8, !tbaa !11
  %30 = getelementptr inbounds nuw %struct.SRP_gN_st, ptr %29, i32 0, i32 2
  %31 = load ptr, ptr %30, align 8, !tbaa !13
  %32 = load ptr, ptr %20, align 8, !tbaa !11
  %33 = getelementptr inbounds nuw %struct.SRP_gN_st, ptr %32, i32 0, i32 1
  %34 = load ptr, ptr %33, align 8, !tbaa !16
  %35 = call i32 @SRP_create_verifier_BN(ptr noundef %27, ptr noundef %28, ptr noundef %9, ptr noundef %10, ptr noundef %31, ptr noundef %34)
  %36 = icmp ne i32 %35, 0
  %37 = zext i1 %36 to i32
  %38 = call i32 @test_true(ptr noundef @.str.2, i32 noundef 52, ptr noundef @.str.13, i32 noundef %37)
  %39 = icmp ne i32 %38, 0
  br i1 %39, label %41, label %40

40:                                               ; preds = %26
  br label %148

41:                                               ; preds = %26
  %42 = load ptr, ptr %20, align 8, !tbaa !11
  %43 = getelementptr inbounds nuw %struct.SRP_gN_st, ptr %42, i32 0, i32 2
  %44 = load ptr, ptr %43, align 8, !tbaa !13
  call void @test_output_bignum(ptr noundef @.str.14, ptr noundef %44)
  %45 = load ptr, ptr %20, align 8, !tbaa !11
  %46 = getelementptr inbounds nuw %struct.SRP_gN_st, ptr %45, i32 0, i32 1
  %47 = load ptr, ptr %46, align 8, !tbaa !16
  call void @test_output_bignum(ptr noundef @.str.15, ptr noundef %47)
  %48 = load ptr, ptr %9, align 8, !tbaa !8
  call void @test_output_bignum(ptr noundef @.str.16, ptr noundef %48)
  %49 = load ptr, ptr %10, align 8, !tbaa !8
  call void @test_output_bignum(ptr noundef @.str.17, ptr noundef %49)
  %50 = getelementptr inbounds [32 x i8], ptr %19, i64 0, i64 0
  %51 = call i32 @RAND_bytes(ptr noundef %50, i32 noundef 32)
  %52 = getelementptr inbounds [32 x i8], ptr %19, i64 0, i64 0
  %53 = call ptr @BN_bin2bn(ptr noundef %52, i32 noundef 32, ptr noundef null)
  store ptr %53, ptr %12, align 8, !tbaa !8
  %54 = load ptr, ptr %12, align 8, !tbaa !8
  %55 = call i32 @test_BN_ne_zero(ptr noundef @.str.2, i32 noundef 63, ptr noundef @.str.18, ptr noundef %54)
  %56 = icmp ne i32 %55, 0
  br i1 %56, label %58, label %57

57:                                               ; preds = %41
  br label %148

58:                                               ; preds = %41
  %59 = load ptr, ptr %12, align 8, !tbaa !8
  call void @test_output_bignum(ptr noundef @.str.18, ptr noundef %59)
  %60 = load ptr, ptr %12, align 8, !tbaa !8
  %61 = load ptr, ptr %20, align 8, !tbaa !11
  %62 = getelementptr inbounds nuw %struct.SRP_gN_st, ptr %61, i32 0, i32 2
  %63 = load ptr, ptr %62, align 8, !tbaa !13
  %64 = load ptr, ptr %20, align 8, !tbaa !11
  %65 = getelementptr inbounds nuw %struct.SRP_gN_st, ptr %64, i32 0, i32 1
  %66 = load ptr, ptr %65, align 8, !tbaa !16
  %67 = load ptr, ptr %10, align 8, !tbaa !8
  %68 = call ptr @SRP_Calc_B(ptr noundef %60, ptr noundef %63, ptr noundef %66, ptr noundef %67)
  store ptr %68, ptr %16, align 8, !tbaa !8
  %69 = load ptr, ptr %16, align 8, !tbaa !8
  call void @test_output_bignum(ptr noundef @.str.19, ptr noundef %69)
  %70 = load ptr, ptr %16, align 8, !tbaa !8
  %71 = load ptr, ptr %20, align 8, !tbaa !11
  %72 = getelementptr inbounds nuw %struct.SRP_gN_st, ptr %71, i32 0, i32 2
  %73 = load ptr, ptr %72, align 8, !tbaa !13
  %74 = call i32 @SRP_Verify_B_mod_N(ptr noundef %70, ptr noundef %73)
  %75 = icmp ne i32 %74, 0
  %76 = zext i1 %75 to i32
  %77 = call i32 @test_true(ptr noundef @.str.2, i32 noundef 71, ptr noundef @.str.20, i32 noundef %76)
  %78 = icmp ne i32 %77, 0
  br i1 %78, label %80, label %79

79:                                               ; preds = %58
  br label %148

80:                                               ; preds = %58
  %81 = getelementptr inbounds [32 x i8], ptr %19, i64 0, i64 0
  %82 = call i32 @RAND_bytes(ptr noundef %81, i32 noundef 32)
  %83 = getelementptr inbounds [32 x i8], ptr %19, i64 0, i64 0
  %84 = call ptr @BN_bin2bn(ptr noundef %83, i32 noundef 32, ptr noundef null)
  store ptr %84, ptr %11, align 8, !tbaa !8
  %85 = load ptr, ptr %11, align 8, !tbaa !8
  %86 = call i32 @test_BN_ne_zero(ptr noundef @.str.2, i32 noundef 77, ptr noundef @.str.21, ptr noundef %85)
  %87 = icmp ne i32 %86, 0
  br i1 %87, label %89, label %88

88:                                               ; preds = %80
  br label %148

89:                                               ; preds = %80
  %90 = load ptr, ptr %11, align 8, !tbaa !8
  call void @test_output_bignum(ptr noundef @.str.21, ptr noundef %90)
  %91 = load ptr, ptr %11, align 8, !tbaa !8
  %92 = load ptr, ptr %20, align 8, !tbaa !11
  %93 = getelementptr inbounds nuw %struct.SRP_gN_st, ptr %92, i32 0, i32 2
  %94 = load ptr, ptr %93, align 8, !tbaa !13
  %95 = load ptr, ptr %20, align 8, !tbaa !11
  %96 = getelementptr inbounds nuw %struct.SRP_gN_st, ptr %95, i32 0, i32 1
  %97 = load ptr, ptr %96, align 8, !tbaa !16
  %98 = call ptr @SRP_Calc_A(ptr noundef %91, ptr noundef %94, ptr noundef %97)
  store ptr %98, ptr %15, align 8, !tbaa !8
  %99 = load ptr, ptr %15, align 8, !tbaa !8
  call void @test_output_bignum(ptr noundef @.str.22, ptr noundef %99)
  %100 = load ptr, ptr %15, align 8, !tbaa !8
  %101 = load ptr, ptr %20, align 8, !tbaa !11
  %102 = getelementptr inbounds nuw %struct.SRP_gN_st, ptr %101, i32 0, i32 2
  %103 = load ptr, ptr %102, align 8, !tbaa !13
  %104 = call i32 @SRP_Verify_A_mod_N(ptr noundef %100, ptr noundef %103)
  %105 = icmp ne i32 %104, 0
  %106 = zext i1 %105 to i32
  %107 = call i32 @test_true(ptr noundef @.str.2, i32 noundef 85, ptr noundef @.str.23, i32 noundef %106)
  %108 = icmp ne i32 %107, 0
  br i1 %108, label %110, label %109

109:                                              ; preds = %89
  br label %148

110:                                              ; preds = %89
  %111 = load ptr, ptr %15, align 8, !tbaa !8
  %112 = load ptr, ptr %16, align 8, !tbaa !8
  %113 = load ptr, ptr %20, align 8, !tbaa !11
  %114 = getelementptr inbounds nuw %struct.SRP_gN_st, ptr %113, i32 0, i32 2
  %115 = load ptr, ptr %114, align 8, !tbaa !13
  %116 = call ptr @SRP_Calc_u(ptr noundef %111, ptr noundef %112, ptr noundef %115)
  store ptr %116, ptr %13, align 8, !tbaa !8
  %117 = load ptr, ptr %9, align 8, !tbaa !8
  %118 = load ptr, ptr %5, align 8, !tbaa !17
  %119 = load ptr, ptr %6, align 8, !tbaa !17
  %120 = call ptr @SRP_Calc_x(ptr noundef %117, ptr noundef %118, ptr noundef %119)
  store ptr %120, ptr %14, align 8, !tbaa !8
  %121 = load ptr, ptr %20, align 8, !tbaa !11
  %122 = getelementptr inbounds nuw %struct.SRP_gN_st, ptr %121, i32 0, i32 2
  %123 = load ptr, ptr %122, align 8, !tbaa !13
  %124 = load ptr, ptr %16, align 8, !tbaa !8
  %125 = load ptr, ptr %20, align 8, !tbaa !11
  %126 = getelementptr inbounds nuw %struct.SRP_gN_st, ptr %125, i32 0, i32 1
  %127 = load ptr, ptr %126, align 8, !tbaa !16
  %128 = load ptr, ptr %14, align 8, !tbaa !8
  %129 = load ptr, ptr %11, align 8, !tbaa !8
  %130 = load ptr, ptr %13, align 8, !tbaa !8
  %131 = call ptr @SRP_Calc_client_key(ptr noundef %123, ptr noundef %124, ptr noundef %127, ptr noundef %128, ptr noundef %129, ptr noundef %130)
  store ptr %131, ptr %17, align 8, !tbaa !8
  %132 = load ptr, ptr %17, align 8, !tbaa !8
  call void @test_output_bignum(ptr noundef @.str.24, ptr noundef %132)
  %133 = load ptr, ptr %15, align 8, !tbaa !8
  %134 = load ptr, ptr %10, align 8, !tbaa !8
  %135 = load ptr, ptr %13, align 8, !tbaa !8
  %136 = load ptr, ptr %12, align 8, !tbaa !8
  %137 = load ptr, ptr %20, align 8, !tbaa !11
  %138 = getelementptr inbounds nuw %struct.SRP_gN_st, ptr %137, i32 0, i32 2
  %139 = load ptr, ptr %138, align 8, !tbaa !13
  %140 = call ptr @SRP_Calc_server_key(ptr noundef %133, ptr noundef %134, ptr noundef %135, ptr noundef %136, ptr noundef %139)
  store ptr %140, ptr %18, align 8, !tbaa !8
  %141 = load ptr, ptr %18, align 8, !tbaa !8
  call void @test_output_bignum(ptr noundef @.str.25, ptr noundef %141)
  %142 = load ptr, ptr %17, align 8, !tbaa !8
  %143 = load ptr, ptr %18, align 8, !tbaa !8
  %144 = call i32 @test_BN_eq(ptr noundef @.str.2, i32 noundef 100, ptr noundef @.str.26, ptr noundef @.str.27, ptr noundef %142, ptr noundef %143)
  %145 = icmp ne i32 %144, 0
  br i1 %145, label %147, label %146

146:                                              ; preds = %110
  br label %148

147:                                              ; preds = %110
  store i32 1, ptr %8, align 4, !tbaa !4
  br label %148

148:                                              ; preds = %147, %146, %109, %88, %79, %57, %40
  %149 = load ptr, ptr %17, align 8, !tbaa !8
  call void @BN_clear_free(ptr noundef %149)
  %150 = load ptr, ptr %18, align 8, !tbaa !8
  call void @BN_clear_free(ptr noundef %150)
  %151 = load ptr, ptr %14, align 8, !tbaa !8
  call void @BN_clear_free(ptr noundef %151)
  %152 = load ptr, ptr %13, align 8, !tbaa !8
  call void @BN_free(ptr noundef %152)
  %153 = load ptr, ptr %15, align 8, !tbaa !8
  call void @BN_free(ptr noundef %153)
  %154 = load ptr, ptr %11, align 8, !tbaa !8
  call void @BN_clear_free(ptr noundef %154)
  %155 = load ptr, ptr %16, align 8, !tbaa !8
  call void @BN_free(ptr noundef %155)
  %156 = load ptr, ptr %12, align 8, !tbaa !8
  call void @BN_clear_free(ptr noundef %156)
  %157 = load ptr, ptr %9, align 8, !tbaa !8
  call void @BN_free(ptr noundef %157)
  %158 = load ptr, ptr %10, align 8, !tbaa !8
  call void @BN_clear_free(ptr noundef %158)
  %159 = load i32, ptr %8, align 4, !tbaa !4
  store i32 %159, ptr %4, align 4
  store i32 1, ptr %21, align 4
  br label %160

160:                                              ; preds = %148, %25
  call void @llvm.lifetime.end.p0(i64 8, ptr %20) #3
  call void @llvm.lifetime.end.p0(i64 32, ptr %19) #3
  call void @llvm.lifetime.end.p0(i64 8, ptr %18) #3
  call void @llvm.lifetime.end.p0(i64 8, ptr %17) #3
  call void @llvm.lifetime.end.p0(i64 8, ptr %16) #3
  call void @llvm.lifetime.end.p0(i64 8, ptr %15) #3
  call void @llvm.lifetime.end.p0(i64 8, ptr %14) #3
  call void @llvm.lifetime.end.p0(i64 8, ptr %13) #3
  call void @llvm.lifetime.end.p0(i64 8, ptr %12) #3
  call void @llvm.lifetime.end.p0(i64 8, ptr %11) #3
  call void @llvm.lifetime.end.p0(i64 8, ptr %10) #3
  call void @llvm.lifetime.end.p0(i64 8, ptr %9) #3
  call void @llvm.lifetime.end.p0(i64 4, ptr %8) #3
  %161 = load i32, ptr %4, align 4
  ret i32 %161
}