; Function Attrs: nounwind uwtable
define internal fastcc range(i32 0, 2) i32 @run_srp(ptr noundef %0, ptr noundef %1) unnamed_addr #0 {
  %3 = alloca ptr, align 8
  %4 = alloca ptr, align 8
  %5 = alloca [32 x i8], align 16
  call void @llvm.lifetime.start.p0(i64 8, ptr nonnull %3) #3
  store ptr null, ptr %3, align 8, !tbaa !4
  call void @llvm.lifetime.start.p0(i64 8, ptr nonnull %4) #3
  store ptr null, ptr %4, align 8, !tbaa !4
  call void @llvm.lifetime.start.p0(i64 32, ptr nonnull %5) #3
  %6 = tail call ptr @SRP_get_default_gN(ptr noundef nonnull @.str.12) #3
  %7 = tail call i32 @test_ptr(ptr noundef nonnull @.str.2, i32 noundef 47, ptr noundef nonnull @.str.11, ptr noundef %6) #3
  %.not = icmp eq i32 %7, 0
  br i1 %.not, label %63, label %8

8:                                                ; preds = %2
  %9 = getelementptr inbounds nuw i8, ptr %6, i64 16
  %10 = load ptr, ptr %9, align 8, !tbaa !9
  %11 = getelementptr inbounds nuw i8, ptr %6, i64 8
  %12 = load ptr, ptr %11, align 8, !tbaa !12
  %13 = call i32 @SRP_create_verifier_BN(ptr noundef nonnull @.str.5, ptr noundef %1, ptr noundef nonnull %3, ptr noundef nonnull %4, ptr noundef %10, ptr noundef %12) #3
  %14 = icmp ne i32 %13, 0
  %15 = zext i1 %14 to i32
  %16 = call i32 @test_true(ptr noundef nonnull @.str.2, i32 noundef 52, ptr noundef nonnull @.str.13, i32 noundef %15) #3
  %.not59 = icmp eq i32 %16, 0
  br i1 %.not59, label %60, label %17

17:                                               ; preds = %8
  %18 = load ptr, ptr %9, align 8, !tbaa !9
  call void @test_output_bignum(ptr noundef nonnull @.str.14, ptr noundef %18) #3
  %19 = load ptr, ptr %11, align 8, !tbaa !12
  call void @test_output_bignum(ptr noundef nonnull @.str.15, ptr noundef %19) #3
  %20 = load ptr, ptr %3, align 8, !tbaa !4
  call void @test_output_bignum(ptr noundef nonnull @.str.16, ptr noundef %20) #3
  %21 = load ptr, ptr %4, align 8, !tbaa !4
  call void @test_output_bignum(ptr noundef nonnull @.str.17, ptr noundef %21) #3
  %22 = call i32 @RAND_bytes(ptr noundef nonnull %5, i32 noundef 32) #3
  %23 = call ptr @BN_bin2bn(ptr noundef nonnull %5, i32 noundef 32, ptr noundef null) #3
  %24 = call i32 @test_BN_ne_zero(ptr noundef nonnull @.str.2, i32 noundef 63, ptr noundef nonnull @.str.18, ptr noundef %23) #3
  %.not60 = icmp eq i32 %24, 0
  br i1 %.not60, label %60, label %25

25:                                               ; preds = %17
  call void @test_output_bignum(ptr noundef nonnull @.str.18, ptr noundef %23) #3
  %26 = load ptr, ptr %9, align 8, !tbaa !9
  %27 = load ptr, ptr %11, align 8, !tbaa !12
  %28 = load ptr, ptr %4, align 8, !tbaa !4
  %29 = call ptr @SRP_Calc_B(ptr noundef %23, ptr noundef %26, ptr noundef %27, ptr noundef %28) #3
  call void @test_output_bignum(ptr noundef nonnull @.str.19, ptr noundef %29) #3
  %30 = load ptr, ptr %9, align 8, !tbaa !9
  %31 = call i32 @SRP_Verify_B_mod_N(ptr noundef %29, ptr noundef %30) #3
  %32 = icmp ne i32 %31, 0
  %33 = zext i1 %32 to i32
  %34 = call i32 @test_true(ptr noundef nonnull @.str.2, i32 noundef 71, ptr noundef nonnull @.str.20, i32 noundef %33) #3
  %.not61 = icmp eq i32 %34, 0
  br i1 %.not61, label %60, label %35

35:                                               ; preds = %25
  %36 = call i32 @RAND_bytes(ptr noundef nonnull %5, i32 noundef 32) #3
  %37 = call ptr @BN_bin2bn(ptr noundef nonnull %5, i32 noundef 32, ptr noundef null) #3
  %38 = call i32 @test_BN_ne_zero(ptr noundef nonnull @.str.2, i32 noundef 77, ptr noundef nonnull @.str.21, ptr noundef %37) #3
  %.not62 = icmp eq i32 %38, 0
  br i1 %.not62, label %60, label %39

39:                                               ; preds = %35
  call void @test_output_bignum(ptr noundef nonnull @.str.21, ptr noundef %37) #3
  %40 = load ptr, ptr %9, align 8, !tbaa !9
  %41 = load ptr, ptr %11, align 8, !tbaa !12
  %42 = call ptr @SRP_Calc_A(ptr noundef %37, ptr noundef %40, ptr noundef %41) #3
  call void @test_output_bignum(ptr noundef nonnull @.str.22, ptr noundef %42) #3
  %43 = load ptr, ptr %9, align 8, !tbaa !9
  %44 = call i32 @SRP_Verify_A_mod_N(ptr noundef %42, ptr noundef %43) #3
  %45 = icmp ne i32 %44, 0
  %46 = zext i1 %45 to i32
  %47 = call i32 @test_true(ptr noundef nonnull @.str.2, i32 noundef 85, ptr noundef nonnull @.str.23, i32 noundef %46) #3
  %.not63 = icmp eq i32 %47, 0
  br i1 %.not63, label %60, label %48

48:                                               ; preds = %39
  %49 = load ptr, ptr %9, align 8, !tbaa !9
  %50 = call ptr @SRP_Calc_u(ptr noundef %42, ptr noundef %29, ptr noundef %49) #3
  %51 = load ptr, ptr %3, align 8, !tbaa !4
  %52 = call ptr @SRP_Calc_x(ptr noundef %51, ptr noundef nonnull @.str.5, ptr noundef %0) #3
  %53 = load ptr, ptr %9, align 8, !tbaa !9
  %54 = load ptr, ptr %11, align 8, !tbaa !12
  %55 = call ptr @SRP_Calc_client_key(ptr noundef %53, ptr noundef %29, ptr noundef %54, ptr noundef %52, ptr noundef %37, ptr noundef %50) #3
  call void @test_output_bignum(ptr noundef nonnull @.str.24, ptr noundef %55) #3
  %56 = load ptr, ptr %4, align 8, !tbaa !4
  %57 = load ptr, ptr %9, align 8, !tbaa !9
  %58 = call ptr @SRP_Calc_server_key(ptr noundef %42, ptr noundef %56, ptr noundef %50, ptr noundef %23, ptr noundef %57) #3
  call void @test_output_bignum(ptr noundef nonnull @.str.25, ptr noundef %58) #3
  %59 = call i32 @test_BN_eq(ptr noundef nonnull @.str.2, i32 noundef 100, ptr noundef nonnull @.str.26, ptr noundef nonnull @.str.27, ptr noundef %55, ptr noundef %58) #3
  %.not64 = icmp ne i32 %59, 0
  %spec.select = zext i1 %.not64 to i32
  br label %60

60:                                               ; preds = %48, %39, %35, %25, %17, %8
  %.058 = phi i32 [ 0, %39 ], [ 0, %35 ], [ 0, %25 ], [ 0, %17 ], [ 0, %8 ], [ %spec.select, %48 ]
  %.057 = phi ptr [ %37, %39 ], [ %37, %35 ], [ null, %25 ], [ null, %17 ], [ null, %8 ], [ %37, %48 ]
  %.056 = phi ptr [ %23, %39 ], [ %23, %35 ], [ %23, %25 ], [ %23, %17 ], [ null, %8 ], [ %23, %48 ]
  %.055 = phi ptr [ null, %39 ], [ null, %35 ], [ null, %25 ], [ null, %17 ], [ null, %8 ], [ %50, %48 ]
  %.054 = phi ptr [ null, %39 ], [ null, %35 ], [ null, %25 ], [ null, %17 ], [ null, %8 ], [ %52, %48 ]
  %.053 = phi ptr [ %42, %39 ], [ null, %35 ], [ null, %25 ], [ null, %17 ], [ null, %8 ], [ %42, %48 ]
  %.052 = phi ptr [ %29, %39 ], [ %29, %35 ], [ %29, %25 ], [ null, %17 ], [ null, %8 ], [ %29, %48 ]
  %.051 = phi ptr [ null, %39 ], [ null, %35 ], [ null, %25 ], [ null, %17 ], [ null, %8 ], [ %55, %48 ]
  %.050 = phi ptr [ null, %39 ], [ null, %35 ], [ null, %25 ], [ null, %17 ], [ null, %8 ], [ %58, %48 ]
  call void @BN_clear_free(ptr noundef %.051) #3
  call void @BN_clear_free(ptr noundef %.050) #3
  call void @BN_clear_free(ptr noundef %.054) #3
  call void @BN_free(ptr noundef %.055) #3
  call void @BN_free(ptr noundef %.053) #3
  call void @BN_clear_free(ptr noundef %.057) #3
  call void @BN_free(ptr noundef %.052) #3
  call void @BN_clear_free(ptr noundef %.056) #3
  %61 = load ptr, ptr %3, align 8, !tbaa !4
  call void @BN_free(ptr noundef %61) #3
  %62 = load ptr, ptr %4, align 8, !tbaa !4
  call void @BN_clear_free(ptr noundef %62) #3
  br label %63

63:                                               ; preds = %2, %60
  %.0 = phi i32 [ %.058, %60 ], [ 0, %2 ]
  call void @llvm.lifetime.end.p0(i64 32, ptr nonnull %5) #3
  call void @llvm.lifetime.end.p0(i64 8, ptr nonnull %4) #3
  call void @llvm.lifetime.end.p0(i64 8, ptr nonnull %3) #3
  ret i32 %.0
}